target datalayout = "e-m:e-p270:32:32-p271:32:32-p272:64:64-i64:64-i128:128-f80:128-n8:16:32:64-S128"
target triple = "x86_64-pc-linux-gnu"

%struct.__sigset_t = type { [16 x i64] }

@ruby_current_vm_ptr = external global ptr, align 8
@received_signal = internal global ptr null, align 8
@.str.24 = private unnamed_addr constant [24 x i8] c"pthread_sigmask:unblock\00", align 1

; Function Attrs: inlinehint nounwind sspstrong uwtable
define internal ptr @rb_current_vm() #5 {
  %1 = load ptr, ptr @ruby_current_vm_ptr, align 8, !tbaa !58
  ret ptr %1
}

; Function Attrs: nounwind sspstrong uwtable
define internal void @reset_sigmask(i32 noundef %0) #1 {
  %2 = alloca i32, align 4
  %3 = alloca %struct.__sigset_t, align 8
  store i32 %0, ptr %2, align 4, !tbaa !7
  call void @llvm.lifetime.start.p0(i64 128, ptr %3) #22
  br label %4

4:                                                ; preds = %1
  %5 = call ptr @rb_current_vm()
  %6 = icmp ne ptr %5, null
  br i1 %6, label %7, label %9

7:                                                ; preds = %4
  %8 = call i64 @rb_gc_enable()
  br label %9

9:                                                ; preds = %7, %4
  store ptr null, ptr @received_signal, align 8, !tbaa !18
  br label %10

10:                                               ; preds = %9
  br label %11

11:                                               ; preds = %10
  %12 = call i32 @sigemptyset(ptr noundef %3) #22
  %13 = load i32, ptr %2, align 4, !tbaa !7
  %14 = call i32 @sigaddset(ptr noundef %3, i32 noundef %13) #22
  %15 = call i32 @pthread_sigmask(i32 noundef 1, ptr noundef %3, ptr noundef null) #22
  %16 = icmp ne i32 %15, 0
  br i1 %16, label %17, label %20

17:                                               ; preds = %11
  %18 = call ptr @rb_errno_ptr()
  %19 = load i32, ptr %18, align 4, !tbaa !7
  call void @rb_bug_errno(ptr noundef @.str.24, i32 noundef %19) #27
  unreachable

20:                                               ; preds = %11
  call void @llvm.lifetime.end.p0(i64 128, ptr %3) #22
  ret void
}