; Function Attrs: nounwind sspstrong uwtable
define internal fastcc void @reset_sigmask(i32 noundef %0) unnamed_addr #1 {
  %2 = alloca %struct.__sigset_t, align 8
  call void @llvm.lifetime.start.p0(i64 128, ptr nonnull %2) #17
  %3 = load ptr, ptr @ruby_current_vm_ptr, align 8, !tbaa !14
  %.not = icmp eq ptr %3, null
  br i1 %.not, label %6, label %4

4:                                                ; preds = %1
  %5 = tail call i64 @rb_gc_enable() #17
  br label %6

6:                                                ; preds = %4, %1
  store ptr null, ptr @received_signal, align 8, !tbaa !17
  %7 = call i32 @sigemptyset(ptr noundef nonnull %2) #17
  %8 = call i32 @sigaddset(ptr noundef nonnull %2, i32 noundef %0) #17
  %9 = call i32 @pthread_sigmask(i32 noundef 1, ptr noundef nonnull %2, ptr noundef null) #17
  %.not1 = icmp eq i32 %9, 0
  br i1 %.not1, label %13, label %10

10:                                               ; preds = %6
  %11 = call ptr @rb_errno_ptr() #17
  %12 = load i32, ptr %11, align 4, !tbaa !19
  call void @rb_bug_errno(ptr noundef nonnull @.str.24, i32 noundef %12) #19
  unreachable

13:                                               ; preds = %6
  call void @llvm.lifetime.end.p0(i64 128, ptr nonnull %2) #17
  ret void
}